target datalayout = "e-m:e-p270:32:32-p271:32:32-p272:64:64-i64:64-i128:128-f80:128-n8:16:32:64-S128"
target triple = "x86_64-pc-linux-gnu"

%struct.ReplicationSlot = type { i8, i8, i32, i8, i8, i32, i32, %struct.ReplicationSlotPersistentData, %struct.LWLock, %struct.ConditionVariable, i32, i64, i64, i64, i64, i64 }
%struct.ReplicationSlotPersistentData = type { %struct.nameData, i32, i32, i32, i32, i64, i32, i64, i64, i8, %struct.nameData, i8, i8 }
%struct.nameData = type { [64 x i8] }
%struct.LWLock = type { i16, %struct.pg_atomic_uint32, %struct.proclist_head }
%struct.pg_atomic_uint32 = type { i32 }
%struct.proclist_head = type { i32, i32 }
%struct.ConditionVariable = type { i8, %struct.proclist_head }
%union.LWLockPadded = type { %struct.LWLock, [112 x i8] }

@.str.6 = private unnamed_addr constant [7 x i8] c"slot.c\00", align 1
@MainLWLockArray = external global ptr, align 8
@.str.29 = private unnamed_addr constant [6 x i8] c"%s/%s\00", align 1
@.str.30 = private unnamed_addr constant [12 x i8] c"pg_replslot\00", align 1
@.str.41 = private unnamed_addr constant [32 x i8] c"could not remove directory \22%s\22\00", align 1
@.str.54 = private unnamed_addr constant [10 x i8] c"%s/%s.tmp\00", align 1
@CritSectionCount = external global i32, align 4
@__func__.ReplicationSlotDropPtr = private unnamed_addr constant [23 x i8] c"ReplicationSlotDropPtr\00", align 1
@.str.55 = private unnamed_addr constant [39 x i8] c"could not rename file \22%s\22 to \22%s\22: %m\00", align 1

; Function Attrs: inlinehint nounwind uwtable
define internal i32 @tas(ptr noundef %0) #7 {
  %2 = alloca ptr, align 8
  %3 = alloca i8, align 1
  store ptr %0, ptr %2, align 8
  call void @llvm.lifetime.start.p0(i64 1, ptr %3) #12
  store i8 1, ptr %3, align 1
  %4 = load i8, ptr %3, align 1
  %5 = load ptr, ptr %2, align 8
  %6 = call i8 asm sideeffect "\09lock\09\09\09\0A\09xchgb\09$0,$1\09\0A", "=q,=*m,0,*m,~{memory},~{cc},~{dirflag},~{fpsr},~{flags}"(ptr elementtype(i8) %5, i8 %4, ptr elementtype(i8) %5) #12, !srcloc !13
  store i8 %6, ptr %3, align 1
  %7 = load i8, ptr %3, align 1
  %8 = zext i8 %7 to i32
  call void @llvm.lifetime.end.p0(i64 1, ptr %3) #12
  ret i32 %8
}

; Function Attrs: nounwind uwtable
define internal void @ReplicationSlotDropPtr(ptr noundef %0) #0 {
  %2 = alloca ptr, align 8
  %3 = alloca [1024 x i8], align 16
  %4 = alloca [1024 x i8], align 16
  %5 = alloca i8, align 1
  store ptr %0, ptr %2, align 8
  call void @llvm.lifetime.start.p0(i64 1024, ptr %3) #12
  call void @llvm.lifetime.start.p0(i64 1024, ptr %4) #12
  %6 = load ptr, ptr @MainLWLockArray, align 8
  %7 = getelementptr inbounds %union.LWLockPadded, ptr %6, i64 36
  %8 = call zeroext i1 @LWLockAcquire(ptr noundef %7, i32 noundef 0)
  %9 = getelementptr inbounds [1024 x i8], ptr %3, i64 0, i64 0
  %10 = load ptr, ptr %2, align 8
  %11 = getelementptr inbounds nuw %struct.ReplicationSlot, ptr %10, i32 0, i32 7
  %12 = getelementptr inbounds nuw %struct.ReplicationSlotPersistentData, ptr %11, i32 0, i32 0
  %13 = getelementptr inbounds nuw %struct.nameData, ptr %12, i32 0, i32 0
  %14 = getelementptr inbounds [64 x i8], ptr %13, i64 0, i64 0
  %15 = call i32 (ptr, ptr, ...) @pg_sprintf(ptr noundef %9, ptr noundef @.str.29, ptr noundef @.str.30, ptr noundef %14)
  %16 = getelementptr inbounds [1024 x i8], ptr %4, i64 0, i64 0
  %17 = load ptr, ptr %2, align 8
  %18 = getelementptr inbounds nuw %struct.ReplicationSlot, ptr %17, i32 0, i32 7
  %19 = getelementptr inbounds nuw %struct.ReplicationSlotPersistentData, ptr %18, i32 0, i32 0
  %20 = getelementptr inbounds nuw %struct.nameData, ptr %19, i32 0, i32 0
  %21 = getelementptr inbounds [64 x i8], ptr %20, i64 0, i64 0
  %22 = call i32 (ptr, ptr, ...) @pg_sprintf(ptr noundef %16, ptr noundef @.str.54, ptr noundef @.str.30, ptr noundef %21)
  %23 = getelementptr inbounds [1024 x i8], ptr %3, i64 0, i64 0
  %24 = getelementptr inbounds [1024 x i8], ptr %4, i64 0, i64 0
  %25 = call i32 @rename(ptr noundef %23, ptr noundef %24) #12
  %26 = icmp eq i32 %25, 0
  br i1 %26, label %27, label %36

27:                                               ; preds = %1
  %28 = load volatile i32, ptr @CritSectionCount, align 4
  %29 = add i32 %28, 1
  store volatile i32 %29, ptr @CritSectionCount, align 4
  %30 = getelementptr inbounds [1024 x i8], ptr %4, i64 0, i64 0
  call void @fsync_fname(ptr noundef %30, i1 noundef zeroext true)
  call void @fsync_fname(ptr noundef @.str.30, i1 noundef zeroext true)
  br label %31

31:                                               ; preds = %27
  %32 = load volatile i32, ptr @CritSectionCount, align 4
  %33 = add i32 %32, -1
  store volatile i32 %33, ptr @CritSectionCount, align 4
  br label %34

34:                                               ; preds = %31
  br label %35

35:                                               ; preds = %34
  br label %101

36:                                               ; preds = %1
  call void @llvm.lifetime.start.p0(i64 1, ptr %5) #12
  %37 = load ptr, ptr %2, align 8
  %38 = getelementptr inbounds nuw %struct.ReplicationSlot, ptr %37, i32 0, i32 7
  %39 = getelementptr inbounds nuw %struct.ReplicationSlotPersistentData, ptr %38, i32 0, i32 2
  %40 = load i32, ptr %39, align 4
  %41 = icmp ne i32 %40, 0
  %42 = zext i1 %41 to i8
  store i8 %42, ptr %5, align 1
  %43 = load ptr, ptr %2, align 8
  %44 = getelementptr inbounds nuw %struct.ReplicationSlot, ptr %43, i32 0, i32 0
  %45 = call i32 @tas(ptr noundef %44)
  %46 = icmp ne i32 %45, 0
  br i1 %46, label %47, label %51

47:                                               ; preds = %36
  %48 = load ptr, ptr %2, align 8
  %49 = getelementptr inbounds nuw %struct.ReplicationSlot, ptr %48, i32 0, i32 0
  %50 = call i32 @s_lock(ptr noundef %49, ptr noundef @.str.6, i32 noundef 959, ptr noundef @__func__.ReplicationSlotDropPtr)
  br label %52

51:                                               ; preds = %36
  br label %52

52:                                               ; preds = %51, %47
  %53 = load ptr, ptr %2, align 8
  %54 = getelementptr inbounds nuw %struct.ReplicationSlot, ptr %53, i32 0, i32 2
  store i32 0, ptr %54, align 4
  br label %55

55:                                               ; preds = %52
  call void asm sideeffect "", "~{memory},~{dirflag},~{fpsr},~{flags}"() #12, !srcloc !24
  %56 = load ptr, ptr %2, align 8
  %57 = getelementptr inbounds nuw %struct.ReplicationSlot, ptr %56, i32 0, i32 0
  store i8 0, ptr %57, align 8
  br label %58

58:                                               ; preds = %55
  br label %59

59:                                               ; preds = %58
  %60 = load ptr, ptr %2, align 8
  %61 = getelementptr inbounds nuw %struct.ReplicationSlot, ptr %60, i32 0, i32 9
  call void @ConditionVariableBroadcast(ptr noundef %61)
  br label %62

62:                                               ; preds = %59
  %63 = load i8, ptr %5, align 1, !range !4, !noundef !5
  %64 = trunc i8 %63 to i1
  %65 = select i1 %64, i32 19, i32 21
  %66 = call i1 @llvm.is.constant.i32(i32 %65)
  br i1 %66, label %67, label %77

67:                                               ; preds = %62
  %68 = load i8, ptr %5, align 1, !range !4, !noundef !5
  %69 = trunc i8 %68 to i1
  %70 = select i1 %69, i32 19, i32 21
  %71 = icmp sge i32 %70, 21
  br i1 %71, label %72, label %77

72:                                               ; preds = %67
  %73 = load i8, ptr %5, align 1, !range !4, !noundef !5
  %74 = trunc i8 %73 to i1
  %75 = select i1 %74, i32 19, i32 21
  %76 = call zeroext i1 @errstart_cold(i32 noundef %75, ptr noundef null) #14
  br i1 %76, label %82, label %87

77:                                               ; preds = %67, %62
  %78 = load i8, ptr %5, align 1, !range !4, !noundef !5
  %79 = trunc i8 %78 to i1
  %80 = select i1 %79, i32 19, i32 21
  %81 = call zeroext i1 @errstart(i32 noundef %80, ptr noundef null)
  br i1 %81, label %82, label %87

82:                                               ; preds = %77, %72
  %83 = call i32 @errcode_for_file_access()
  %84 = getelementptr inbounds [1024 x i8], ptr %3, i64 0, i64 0
  %85 = getelementptr inbounds [1024 x i8], ptr %4, i64 0, i64 0
  %86 = call i32 (ptr, ...) @errmsg(ptr noundef @.str.55, ptr noundef %84, ptr noundef %85)
  call void @errfinish(ptr noundef @.str.6, i32 noundef 969, ptr noundef @__func__.ReplicationSlotDropPtr)
  br label %87

87:                                               ; preds = %82, %77, %72
  %88 = load i8, ptr %5, align 1, !range !4, !noundef !5
  %89 = trunc i8 %88 to i1
  %90 = select i1 %89, i32 19, i32 21
  %91 = call i1 @llvm.is.constant.i32(i32 %90)
  br i1 %91, label %92, label %98

92:                                               ; preds = %87
  %93 = load i8, ptr %5, align 1, !range !4, !noundef !5
  %94 = trunc i8 %93 to i1
  %95 = select i1 %94, i32 19, i32 21
  %96 = icmp sge i32 %95, 21
  br i1 %96, label %97, label %98

97:                                               ; preds = %92
  unreachable

98:                                               ; preds = %92, %87
  br label %99

99:                                               ; preds = %98
  br label %100

100:                                              ; preds = %99
  call void @llvm.lifetime.end.p0(i64 1, ptr %5) #12
  br label %101

101:                                              ; preds = %100, %35
  %102 = load ptr, ptr @MainLWLockArray, align 8
  %103 = getelementptr inbounds %union.LWLockPadded, ptr %102, i64 37
  %104 = call zeroext i1 @LWLockAcquire(ptr noundef %103, i32 noundef 0)
  %105 = load ptr, ptr %2, align 8
  %106 = getelementptr inbounds nuw %struct.ReplicationSlot, ptr %105, i32 0, i32 2
  store i32 0, ptr %106, align 4
  %107 = load ptr, ptr %2, align 8
  %108 = getelementptr inbounds nuw %struct.ReplicationSlot, ptr %107, i32 0, i32 1
  store i8 0, ptr %108, align 1
  %109 = load ptr, ptr @MainLWLockArray, align 8
  %110 = getelementptr inbounds %union.LWLockPadded, ptr %109, i64 37
  call void @LWLockRelease(ptr noundef %110)
  %111 = load ptr, ptr %2, align 8
  %112 = getelementptr inbounds nuw %struct.ReplicationSlot, ptr %111, i32 0, i32 9
  call void @ConditionVariableBroadcast(ptr noundef %112)
  call void @ReplicationSlotsComputeRequiredXmin(i1 noundef zeroext false)
  call void @ReplicationSlotsComputeRequiredLSN()
  %113 = getelementptr inbounds [1024 x i8], ptr %4, i64 0, i64 0
  %114 = call zeroext i1 @rmtree(ptr noundef %113, i1 noundef zeroext true)
  br i1 %114, label %127, label %115

115:                                              ; preds = %101
  br label %116

116:                                              ; preds = %115
  br i1 false, label %117, label %119

117:                                              ; preds = %116
  %118 = call zeroext i1 @errstart_cold(i32 noundef 19, ptr noundef null) #14
  br i1 %118, label %121, label %124

119:                                              ; preds = %116
  %120 = call zeroext i1 @errstart(i32 noundef 19, ptr noundef null)
  br i1 %120, label %121, label %124

121:                                              ; preds = %119, %117
  %122 = getelementptr inbounds [1024 x i8], ptr %4, i64 0, i64 0
  %123 = call i32 (ptr, ...) @errmsg(ptr noundef @.str.41, ptr noundef %122)
  call void @errfinish(ptr noundef @.str.6, i32 noundef 1001, ptr noundef @__func__.ReplicationSlotDropPtr)
  br label %124

124:                                              ; preds = %121, %119, %117
  br label %125

125:                                              ; preds = %124
  br label %126

126:                                              ; preds = %125
  br label %127

127:                                              ; preds = %126, %101
  %128 = load ptr, ptr %2, align 8
  %129 = getelementptr inbounds nuw %struct.ReplicationSlot, ptr %128, i32 0, i32 7
  %130 = getelementptr inbounds nuw %struct.ReplicationSlotPersistentData, ptr %129, i32 0, i32 1
  %131 = load i32, ptr %130, align 8
  %132 = icmp ne i32 %131, 0
  br i1 %132, label %133, label %135

133:                                              ; preds = %127
  %134 = load ptr, ptr %2, align 8
  call void @pgstat_drop_replslot(ptr noundef %134)
  br label %135

135:                                              ; preds = %133, %127
  %136 = load ptr, ptr @MainLWLockArray, align 8
  %137 = getelementptr inbounds %union.LWLockPadded, ptr %136, i64 36
  call void @LWLockRelease(ptr noundef %137)
  call void @llvm.lifetime.end.p0(i64 1024, ptr %4) #12
  call void @llvm.lifetime.end.p0(i64 1024, ptr %3) #12
  ret void
}