; Function Attrs: nounwind uwtable
define internal fastcc void @ReplicationSlotDropPtr(ptr noundef %0) unnamed_addr #0 {
  %2 = alloca [1024 x i8], align 16
  %3 = alloca [1024 x i8], align 16
  call void @llvm.lifetime.start.p0(i64 1024, ptr nonnull %2) #17
  call void @llvm.lifetime.start.p0(i64 1024, ptr nonnull %3) #17
  %4 = load ptr, ptr @MainLWLockArray, align 8
  %5 = getelementptr inbounds nuw i8, ptr %4, i64 4608
  %6 = tail call zeroext i1 @LWLockAcquire(ptr noundef nonnull %5, i32 noundef 0) #17
  %7 = getelementptr inbounds nuw i8, ptr %0, i64 24
  %8 = call i32 (ptr, ptr, ...) @pg_sprintf(ptr noundef nonnull %2, ptr noundef nonnull @.str.29, ptr noundef nonnull @.str.30, ptr noundef nonnull %7) #17
  %9 = call i32 (ptr, ptr, ...) @pg_sprintf(ptr noundef nonnull %3, ptr noundef nonnull @.str.54, ptr noundef nonnull @.str.30, ptr noundef nonnull %7) #17
  %10 = call i32 @rename(ptr noundef nonnull %2, ptr noundef nonnull %3) #17
  %11 = icmp eq i32 %10, 0
  br i1 %11, label %12, label %17

12:                                               ; preds = %1
  %13 = load volatile i32, ptr @CritSectionCount, align 4
  %14 = add i32 %13, 1
  store volatile i32 %14, ptr @CritSectionCount, align 4
  call void @fsync_fname(ptr noundef nonnull %3, i1 noundef zeroext true) #17
  call void @fsync_fname(ptr noundef nonnull @.str.30, i1 noundef zeroext true) #17
  %15 = load volatile i32, ptr @CritSectionCount, align 4
  %16 = add i32 %15, -1
  store volatile i32 %16, ptr @CritSectionCount, align 4
  br label %31

17:                                               ; preds = %1
  %18 = getelementptr inbounds nuw i8, ptr %0, i64 92
  %19 = load i32, ptr %18, align 4
  %.not.not = icmp eq i32 %19, 0
  %20 = call i8 asm sideeffect "\09lock\09\09\09\0A\09xchgb\09$0,$1\09\0A", "=q,=*m,0,*m,~{memory},~{cc},~{dirflag},~{fpsr},~{flags}"(ptr nonnull elementtype(i8) %0, i8 1, ptr nonnull elementtype(i8) %0) #17, !srcloc !11
  %.not18 = icmp eq i8 %20, 0
  br i1 %.not18, label %23, label %21

21:                                               ; preds = %17
  %22 = call i32 @s_lock(ptr noundef nonnull %0, ptr noundef nonnull @.str.6, i32 noundef 959, ptr noundef nonnull @__func__.ReplicationSlotDropPtr) #17
  br label %23

23:                                               ; preds = %17, %21
  %24 = getelementptr inbounds nuw i8, ptr %0, i64 4
  store i32 0, ptr %24, align 4
  call void asm sideeffect "", "~{memory},~{dirflag},~{fpsr},~{flags}"() #17, !srcloc !23
  store i8 0, ptr %0, align 8
  %25 = getelementptr inbounds nuw i8, ptr %0, i64 224
  call void @ConditionVariableBroadcast(ptr noundef nonnull %25) #17
  %26 = select i1 %.not.not, i32 21, i32 19
  %27 = call zeroext i1 @errstart(i32 noundef %26, ptr noundef null) #17
  br i1 %27, label %28, label %31

28:                                               ; preds = %23
  %29 = call i32 @errcode_for_file_access() #17
  %30 = call i32 (ptr, ...) @errmsg(ptr noundef nonnull @.str.55, ptr noundef nonnull %2, ptr noundef nonnull %3) #17
  call void @errfinish(ptr noundef nonnull @.str.6, i32 noundef 969, ptr noundef nonnull @__func__.ReplicationSlotDropPtr) #17
  br label %31

31:                                               ; preds = %23, %28, %12
  %32 = load ptr, ptr @MainLWLockArray, align 8
  %33 = getelementptr inbounds nuw i8, ptr %32, i64 4736
  %34 = call zeroext i1 @LWLockAcquire(ptr noundef nonnull %33, i32 noundef 0) #17
  %35 = getelementptr inbounds nuw i8, ptr %0, i64 4
  store i32 0, ptr %35, align 4
  %36 = getelementptr inbounds nuw i8, ptr %0, i64 1
  store i8 0, ptr %36, align 1
  %37 = load ptr, ptr @MainLWLockArray, align 8
  %38 = getelementptr inbounds nuw i8, ptr %37, i64 4736
  call void @LWLockRelease(ptr noundef nonnull %38) #17
  %39 = getelementptr inbounds nuw i8, ptr %0, i64 224
  call void @ConditionVariableBroadcast(ptr noundef nonnull %39) #17
  call void @ReplicationSlotsComputeRequiredXmin(i1 noundef zeroext false)
  call void @ReplicationSlotsComputeRequiredLSN()
  %40 = call zeroext i1 @rmtree(ptr noundef nonnull %3, i1 noundef zeroext true) #17
  br i1 %40, label %45, label %41

41:                                               ; preds = %31
  %42 = call zeroext i1 @errstart(i32 noundef 19, ptr noundef null) #17
  br i1 %42, label %43, label %45

43:                                               ; preds = %41
  %44 = call i32 (ptr, ...) @errmsg(ptr noundef nonnull @.str.41, ptr noundef nonnull %3) #17
  call void @errfinish(ptr noundef nonnull @.str.6, i32 noundef 1001, ptr noundef nonnull @__func__.ReplicationSlotDropPtr) #17
  br label %45

45:                                               ; preds = %41, %43, %31
  %46 = getelementptr inbounds nuw i8, ptr %0, i64 88
  %47 = load i32, ptr %46, align 8
  %.not19 = icmp eq i32 %47, 0
  br i1 %.not19, label %49, label %48

48:                                               ; preds = %45
  call void @pgstat_drop_replslot(ptr noundef nonnull %0) #17
  br label %49

49:                                               ; preds = %48, %45
  %50 = load ptr, ptr @MainLWLockArray, align 8
  %51 = getelementptr inbounds nuw i8, ptr %50, i64 4608
  call void @LWLockRelease(ptr noundef nonnull %51) #17
  call void @llvm.lifetime.end.p0(i64 1024, ptr nonnull %3) #17
  call void @llvm.lifetime.end.p0(i64 1024, ptr nonnull %2) #17
  ret void
}